; Function Attrs: mustprogress uwtable
define void @_ZN6icu_7524FCDUTF8CollationIterator13resetToOffsetEi(ptr noundef nonnull align 8 dereferenceable(496) %this, i32 noundef %newOffset) unnamed_addr #1 align 2 {
entry:
  tail call void @_ZN6icu_7517CollationIterator5resetEv(ptr noundef nonnull align 8 dereferenceable(389) %this)
  %pos = getelementptr inbounds i8, ptr %this, i64 400
  store i32 %newOffset, ptr %pos, align 8
  %start = getelementptr inbounds i8, ptr %this, i64 412
  store i32 %newOffset, ptr %start, align 4
  %state = getelementptr inbounds i8, ptr %this, i64 408
  store i32 0, ptr %state, align 8
  ret void
}